; Function Attrs: mustprogress nounwind uwtable
define hidden void @_ZNK5clang6driver10toolchains5MachO27GetGlobalDebugPathRemappingB5cxx11Ev(ptr dead_on_unwind noalias writable sret(%"class.std::__cxx11::basic_string") align 8 %0, ptr nocapture nonnull readnone align 8 %1) unnamed_addr #0 align 2 {
  %3 = alloca %"class.std::allocator", align 1
  %4 = tail call ptr @getenv(ptr noundef nonnull @.str.241) #20
  %.not = icmp eq ptr %4, null
  br i1 %.not, label %8, label %_ZNSt7__cxx1112basic_stringIcSt11char_traitsIcESaIcEEC2IS3_EEPKcRKS3_.exit

_ZNSt7__cxx1112basic_stringIcSt11char_traitsIcESaIcEEC2IS3_EEPKcRKS3_.exit: ; preds = %2
  call void @_ZNSaIcEC1Ev(ptr noundef nonnull align 1 dereferenceable(1) %3) #20
  %5 = call noundef ptr @_ZNSt7__cxx1112basic_stringIcSt11char_traitsIcESaIcEE13_M_local_dataEv(ptr noundef nonnull align 8 dereferenceable(32) %0) #20
  call void @_ZNSt7__cxx1112basic_stringIcSt11char_traitsIcESaIcEE12_Alloc_hiderC1EPcRKS3_(ptr noundef nonnull align 8 dereferenceable(8) %0, ptr noundef %5, ptr noundef nonnull align 1 dereferenceable(1) %3) #20
  %6 = call noundef i64 @strlen(ptr noundef nonnull dereferenceable(1) %4) #20
  %7 = getelementptr inbounds i8, ptr %4, i64 %6
  call void @_ZNSt7__cxx1112basic_stringIcSt11char_traitsIcESaIcEE12_M_constructIPKcEEvT_S8_St20forward_iterator_tag(ptr noundef nonnull align 8 dereferenceable(32) %0, ptr noundef nonnull %4, ptr noundef nonnull %7)
  call void @_ZNSaIcED1Ev(ptr noundef nonnull align 1 dereferenceable(1) %3) #20
  br label %9

8:                                                ; preds = %2
  tail call void @_ZNSt7__cxx1112basic_stringIcSt11char_traitsIcESaIcEEC1Ev(ptr noundef nonnull align 8 dereferenceable(32) %0) #20
  br label %9

9:                                                ; preds = %8, %_ZNSt7__cxx1112basic_stringIcSt11char_traitsIcESaIcEEC2IS3_EEPKcRKS3_.exit
  ret void
}